(dp1
S'output'
p2
S"<type 'exceptions.NameError'> global name 'g_wtask' is not defined"
p3
sS'layer'
p4
S'/usr/local/web2py/applications/myapp/controllers/tablebar_globals.py'
p5
sS'code'
p6
S'#!/usr/bin/env python\n# -*- coding: utf-8 -*-\n# try something like\n\nfrom gluon import *\n\nglobal g_wtask\nglobal g_lock\n\ndef init_variable():\n    global g_wtask\n    global g_lock\n    g_wtask = "0"\n    g_lock = "False"\n    \ndef setTask():\n    global g_wtask\n    g_wtask = request.args(0)\n    return "setTask ok"\n    \ndef getTask():\n    global g_wtask\n    return g_wtask\n\ndef setLock():\n    global g_lock\n    g_lock = request.args(0)\n    return "setLock ok"\n    \ndef getLock():\n    global g_lock\n    return g_lock\n\nresponse._vars=response._caller(getTask)\n'
p7
sS'snapshot'
p8
(dp9
sS'traceback'
p10
S'Traceback (most recent call last):\n  File "/usr/local/web2py/gluon/restricted.py", line 227, in restricted\n    exec ccode in environment\n  File "/usr/local/web2py/applications/myapp/controllers/tablebar_globals.py", line 34, in <module>\n  File "/usr/local/web2py/gluon/globals.py", line 412, in <lambda>\n    self._caller = lambda f: f()\n  File "/usr/local/web2py/applications/myapp/controllers/tablebar_globals.py", line 23, in getTask\n    return g_wtask\nNameError: global name \'g_wtask\' is not defined\n'
p11
s.