(dp1
S'output'
p2
S"<type 'exceptions.NameError'> global name 'Popen' is not defined"
p3
sS'layer'
p4
S'/usr/local/web2py/applications/myapp/controllers/tablebar_email.py'
p5
sS'code'
p6
S'# -*- coding: utf-8 -*-\n# try something like\n#def index(): return dict(message="hello from tablebar_email.py")\nimport sys\nimport requests\nimport time\n\ndef getTime():\n    now = time.localtime()\n    r_time = "%02d:%02d:%02d"%(now.tm_hour, now.tm_min, now.tm_sec)\n    return r_time\n\ndef run_cmd(cmd):\n    p = Popen(cmd, shell=True, stdout=PIPE)\n    output = p.communicate()[0]\n    return output\n\ndef print_tail():\n    cmd = "tail -n 10 /usr/local/web2py/logs/pcm_LCD.log"\n    printTail = run_cmd(cmd)\n    return printTail\n\ndef send_email():\n    requests.post(\n        "https://api.mailgun.net/v3/sandbox54f98034843b4141b17c7334201d0628.mailgun.org/messages",\n        auth=("api", "key-e5a9135df9910d5b8c14dad503d8c5e6"),\n        data={"from": "Excited User <mailgun@sandbox54f98034843b4141b17c7334201d0628.mailgun.org>",\n              "to": ["walkinpcm@gmail.com"],\n              "subject": "TableBar Log : %s"%(getTime()),\n              "text": print_tail()})\n    return "Send E-mail : Okay"\n\ndef send_email_with_Attachment():\n    requests.post(\n        "https://api.mailgun.net/v3/sandbox54f98034843b4141b17c7334201d0628.mailgun.org/messages",\n        auth=("api", "key-e5a9135df9910d5b8c14dad503d8c5e6"),\n        files={\n                  "attachment[0]": ("pcm_LCD.log", open(\'/usr/local/web2py/logs/pcm_LCD.log\', \'rb\'))\n              },\n        data={"from": "Excited User <mailgun@sandbox54f98034843b4141b17c7334201d0628.mailgun.org>",\n              "to": ["walkinpcm@gmail.com"],\n              "subject": "TableBar Log : %s with Attachment"%(getTime()),\n              "text": "log file"})\n    return "Send E-mail : Okay with Attachment"\n\nresponse._vars=response._caller(send_email)\n'
p7
sS'snapshot'
p8
(dp9
sS'traceback'
p10
S'Traceback (most recent call last):\n  File "/usr/local/web2py/gluon/restricted.py", line 227, in restricted\n    exec ccode in environment\n  File "/usr/local/web2py/applications/myapp/controllers/tablebar_email.py", line 46, in <module>\n  File "/usr/local/web2py/gluon/globals.py", line 412, in <lambda>\n    self._caller = lambda f: f()\n  File "/usr/local/web2py/applications/myapp/controllers/tablebar_email.py", line 30, in send_email\n    "text": print_tail()})\n  File "/usr/local/web2py/applications/myapp/controllers/tablebar_email.py", line 20, in print_tail\n    printTail = run_cmd(cmd)\n  File "/usr/local/web2py/applications/myapp/controllers/tablebar_email.py", line 14, in run_cmd\n    p = Popen(cmd, shell=True, stdout=PIPE)\nNameError: global name \'Popen\' is not defined\n'
p11
s.